; Function Attrs: mustprogress nounwind uwtable
define internal fastcc void @_ZL18check_is_obj_arrayP10JavaThreadP7_jarray(ptr noundef %0, ptr noundef %1) unnamed_addr #0 {
  %3 = tail call noundef ptr @_ZN8jniCheck15validate_objectEP10JavaThreadP8_jobject(ptr noundef %0, ptr noundef %1)
  %4 = icmp eq ptr %3, null
  br i1 %4, label %25, label %5

5:                                                ; preds = %2
  %6 = load i8, ptr @UseCompressedClassPointers, align 1
  %7 = trunc i8 %6 to i1
  %8 = getelementptr inbounds i8, ptr %3, i64 8
  br i1 %7, label %_ZNK7oopDesc8is_arrayEv.exit.i, label %_ZNK7oopDesc8is_arrayEv.exit.i.thread

_ZNK7oopDesc8is_arrayEv.exit.i:                   ; preds = %5
  %9 = load i32, ptr %8, align 8
  %10 = load ptr, ptr @_ZN23CompressedKlassPointers5_baseE, align 8
  %11 = load i32, ptr @_ZN23CompressedKlassPointers6_shiftE, align 4
  %12 = ptrtoint ptr %10 to i64
  %13 = zext i32 %9 to i64
  %14 = zext nneg i32 %11 to i64
  %15 = shl i64 %13, %14
  %16 = add i64 %15, %12
  %17 = inttoptr i64 %16 to ptr
  %18 = getelementptr inbounds i8, ptr %17, i64 12
  %19 = load i32, ptr %18, align 4
  %20 = icmp sgt i32 %19, 4
  br i1 %20, label %_ZNK7oopDesc11is_objArrayEv.exit, label %25

_ZNK7oopDesc8is_arrayEv.exit.i.thread:            ; preds = %5
  %21 = load ptr, ptr %8, align 8
  %22 = getelementptr inbounds i8, ptr %21, i64 12
  %23 = load i32, ptr %22, align 4
  %24 = icmp sgt i32 %23, 4
  br i1 %24, label %_ZNK7oopDesc11is_objArrayEv.exit, label %25

25:                                               ; preds = %_ZNK7oopDesc8is_arrayEv.exit.i.thread, %_ZNK7oopDesc8is_arrayEv.exit.i, %2
  %26 = load ptr, ptr @tty, align 8
  tail call void (ptr, ptr, ...) @_ZN12outputStream8print_crEPKcz(ptr noundef nonnull align 8 dereferenceable(56) %26, ptr noundef nonnull @.str.126, ptr noundef nonnull @.str.153) #11
  tail call void @_ZN10JavaThread15print_jni_stackEv(ptr noundef nonnull align 8 dereferenceable(1800) %0) #11
  tail call void @_ZN2os5abortEb(i1 noundef zeroext true) #12
  unreachable

_ZNK7oopDesc11is_objArrayEv.exit:                 ; preds = %_ZNK7oopDesc8is_arrayEv.exit.i.thread, %_ZNK7oopDesc8is_arrayEv.exit.i
  %27 = phi i32 [ %19, %_ZNK7oopDesc8is_arrayEv.exit.i ], [ %23, %_ZNK7oopDesc8is_arrayEv.exit.i.thread ]
  %28 = icmp eq i32 %27, 6
  br i1 %28, label %31, label %29

29:                                               ; preds = %_ZNK7oopDesc11is_objArrayEv.exit
  %30 = load ptr, ptr @tty, align 8
  tail call void (ptr, ptr, ...) @_ZN12outputStream8print_crEPKcz(ptr noundef nonnull align 8 dereferenceable(56) %30, ptr noundef nonnull @.str.126, ptr noundef nonnull @.str.154) #11
  tail call void @_ZN10JavaThread15print_jni_stackEv(ptr noundef nonnull align 8 dereferenceable(1800) %0) #11
  tail call void @_ZN2os5abortEb(i1 noundef zeroext true) #12
  unreachable

31:                                               ; preds = %_ZNK7oopDesc11is_objArrayEv.exit
  ret void
}